target datalayout = "e-m:e-p270:32:32-p271:32:32-p272:64:64-i64:64-i128:128-f80:128-n8:16:32:64-S128"
target triple = "x86_64-pc-linux-gnu"

%"struct.icu_77::Norm" = type { ptr, ptr, i32, i32, i32, ptr, i8, i8, i8, i8, i8, i8, i32, i32, ptr }
%"class.icu_77::Norms" = type { %"class.icu_77::UnicodeSet", %"class.icu_77::UnicodeSet", ptr, ptr, ptr }
%"class.icu_77::UnicodeSet" = type <{ %"class.icu_77::UnicodeFilter", ptr, i32, i32, i8, [7 x i8], ptr, ptr, i32, [4 x i8], ptr, i32, [4 x i8], ptr, ptr, [25 x i32], [4 x i8] }>
%"class.icu_77::UnicodeFilter" = type { %"class.icu_77::UnicodeFunctor", %"class.icu_77::UnicodeMatcher" }
%"class.icu_77::UnicodeFunctor" = type { %"class.icu_77::UObject" }
%"class.icu_77::UObject" = type { ptr }
%"class.icu_77::UnicodeMatcher" = type { ptr }

; Function Attrs: mustprogress uwtable
define dso_local noundef nonnull align 8 dereferenceable(64) ptr @_ZNK6icu_775Norms10getNormRefEi(ptr noundef nonnull align 8 dereferenceable(424) %0, i32 noundef %1) #0 align 2 {
  %3 = alloca ptr, align 8
  %4 = alloca i32, align 4
  store ptr %0, ptr %3, align 8, !tbaa !38
  store i32 %1, ptr %4, align 4, !tbaa !9
  %5 = load ptr, ptr %3, align 8
  %6 = getelementptr inbounds nuw %"class.icu_77::Norms", ptr %5, i32 0, i32 4
  %7 = load ptr, ptr %6, align 8, !tbaa !55
  %8 = getelementptr inbounds nuw %"class.icu_77::Norms", ptr %5, i32 0, i32 2
  %9 = load ptr, ptr %8, align 8, !tbaa !41
  %10 = load i32, ptr %4, align 4, !tbaa !9
  %11 = call i32 @umutablecptrie_get_77(ptr noundef %9, i32 noundef %10)
  %12 = zext i32 %11 to i64
  %13 = getelementptr inbounds nuw %"struct.icu_77::Norm", ptr %7, i64 %12
  ret ptr %13
}