; Function Attrs: mustprogress uwtable
define dso_local noundef nonnull align 8 dereferenceable(64) ptr @_ZNK6icu_775Norms10getNormRefEi(ptr noundef nonnull readonly align 8 captures(none) dereferenceable(424) %0, i32 noundef %1) local_unnamed_addr #2 align 2 {
  %3 = getelementptr inbounds nuw i8, ptr %0, i64 416
  %4 = load ptr, ptr %3, align 8, !tbaa !48
  %5 = getelementptr inbounds nuw i8, ptr %0, i64 400
  %6 = load ptr, ptr %5, align 8, !tbaa !34
  %7 = tail call i32 @umutablecptrie_get_77(ptr noundef %6, i32 noundef %1)
  %8 = zext i32 %7 to i64
  %9 = getelementptr inbounds nuw %"struct.icu_77::Norm", ptr %4, i64 %8
  ret ptr %9
}